target datalayout = "e-m:e-p270:32:32-p271:32:32-p272:64:64-i64:64-i128:128-f80:128-n8:16:32:64-S128"
target triple = "x86_64-pc-linux-gnu"

@.str = private unnamed_addr constant [161 x i8] c"generated/home/dtcxzyw/WorkSpace/Projects/compilers/llvm-opt-benchmark/bench/open3d/Open3D/cpp/open3d/visualization/visualizer/VisualizerWithVertexSelection.cpp\00", align 1
@.str.44 = private unnamed_addr constant [1 x i8] zeroinitializer, align 1
@__PRETTY_FUNCTION__._ZN6open3d13visualization29VisualizerWithVertexSelection19PrintVisualizerHelpEv = private unnamed_addr constant [89 x i8] c"virtual void open3d::visualization::VisualizerWithVertexSelection::PrintVisualizerHelp()\00", align 1
@.str.71 = private unnamed_addr constant [24 x i8] c"  -- Editing control --\00", align 1
@.str.72 = private unnamed_addr constant [76 x i8] c"    X            : Enter orthogonal view along X axis, press again to flip.\00", align 1
@.str.73 = private unnamed_addr constant [76 x i8] c"    Y            : Enter orthogonal view along Y axis, press again to flip.\00", align 1
@.str.74 = private unnamed_addr constant [76 x i8] c"    Z            : Enter orthogonal view along Z axis, press again to flip.\00", align 1
@.str.75 = private unnamed_addr constant [36 x i8] c"    Ctrl + R     : Clear selection.\00", align 1
@.str.76 = private unnamed_addr constant [56 x i8] c"    Shift + +/-  : Increase/decrease picked point size.\00", align 1
@.str.77 = private unnamed_addr constant [78 x i8] c"    Shift + mouse left button   : Pick a point and add to selection. If it is\00", align 1
@.str.78 = private unnamed_addr constant [79 x i8] c"                                  already in the selection it will be removed.\00", align 1
@.str.79 = private unnamed_addr constant [79 x i8] c"    Shift + mouse left drag     : Defines a rectangle, which will add all the \00", align 1
@.str.80 = private unnamed_addr constant [65 x i8] c"                                  points in it to the selection.\00", align 1
@.str.81 = private unnamed_addr constant [57 x i8] c"    mouse right drag            : Moves selected points.\00", align 1
@.str.82 = private unnamed_addr constant [79 x i8] c"    Delete / Backspace          : Removes all points in the rectangle from the\00", align 1
@.str.83 = private unnamed_addr constant [45 x i8] c"                                  selection.\00", align 1

; Function Attrs: mustprogress ssp uwtable
define void @_ZN6open3d13visualization29VisualizerWithVertexSelection19PrintVisualizerHelpEv(ptr noundef nonnull align 16 dereferenceable(1384) %0) unnamed_addr #1 align 2 {
  %2 = alloca ptr, align 8
  store ptr %0, ptr %2, align 8, !tbaa !4
  %3 = load ptr, ptr %2, align 8
  call void @_ZN6open3d13visualization10Visualizer19PrintVisualizerHelpEv(ptr noundef nonnull align 8 dereferenceable(456) %3)
  call void @_ZN6open3d7utility6Logger8LogInfo_IJEEEvPKciS4_S4_DpOT_(ptr noundef @.str, i32 noundef 232, ptr noundef @__PRETTY_FUNCTION__._ZN6open3d13visualization29VisualizerWithVertexSelection19PrintVisualizerHelpEv, ptr noundef @.str.71)
  call void @_ZN6open3d7utility6Logger8LogInfo_IJEEEvPKciS4_S4_DpOT_(ptr noundef @.str, i32 noundef 233, ptr noundef @__PRETTY_FUNCTION__._ZN6open3d13visualization29VisualizerWithVertexSelection19PrintVisualizerHelpEv, ptr noundef @.str.72)
  call void @_ZN6open3d7utility6Logger8LogInfo_IJEEEvPKciS4_S4_DpOT_(ptr noundef @.str, i32 noundef 234, ptr noundef @__PRETTY_FUNCTION__._ZN6open3d13visualization29VisualizerWithVertexSelection19PrintVisualizerHelpEv, ptr noundef @.str.73)
  call void @_ZN6open3d7utility6Logger8LogInfo_IJEEEvPKciS4_S4_DpOT_(ptr noundef @.str, i32 noundef 235, ptr noundef @__PRETTY_FUNCTION__._ZN6open3d13visualization29VisualizerWithVertexSelection19PrintVisualizerHelpEv, ptr noundef @.str.74)
  call void @_ZN6open3d7utility6Logger8LogInfo_IJEEEvPKciS4_S4_DpOT_(ptr noundef @.str, i32 noundef 236, ptr noundef @__PRETTY_FUNCTION__._ZN6open3d13visualization29VisualizerWithVertexSelection19PrintVisualizerHelpEv, ptr noundef @.str.75)
  call void @_ZN6open3d7utility6Logger8LogInfo_IJEEEvPKciS4_S4_DpOT_(ptr noundef @.str, i32 noundef 237, ptr noundef @__PRETTY_FUNCTION__._ZN6open3d13visualization29VisualizerWithVertexSelection19PrintVisualizerHelpEv, ptr noundef @.str.76)
  call void @_ZN6open3d7utility6Logger8LogInfo_IJEEEvPKciS4_S4_DpOT_(ptr noundef @.str, i32 noundef 238, ptr noundef @__PRETTY_FUNCTION__._ZN6open3d13visualization29VisualizerWithVertexSelection19PrintVisualizerHelpEv, ptr noundef @.str.77)
  call void @_ZN6open3d7utility6Logger8LogInfo_IJEEEvPKciS4_S4_DpOT_(ptr noundef @.str, i32 noundef 239, ptr noundef @__PRETTY_FUNCTION__._ZN6open3d13visualization29VisualizerWithVertexSelection19PrintVisualizerHelpEv, ptr noundef @.str.78)
  call void @_ZN6open3d7utility6Logger8LogInfo_IJEEEvPKciS4_S4_DpOT_(ptr noundef @.str, i32 noundef 240, ptr noundef @__PRETTY_FUNCTION__._ZN6open3d13visualization29VisualizerWithVertexSelection19PrintVisualizerHelpEv, ptr noundef @.str.79)
  call void @_ZN6open3d7utility6Logger8LogInfo_IJEEEvPKciS4_S4_DpOT_(ptr noundef @.str, i32 noundef 241, ptr noundef @__PRETTY_FUNCTION__._ZN6open3d13visualization29VisualizerWithVertexSelection19PrintVisualizerHelpEv, ptr noundef @.str.80)
  call void @_ZN6open3d7utility6Logger8LogInfo_IJEEEvPKciS4_S4_DpOT_(ptr noundef @.str, i32 noundef 242, ptr noundef @__PRETTY_FUNCTION__._ZN6open3d13visualization29VisualizerWithVertexSelection19PrintVisualizerHelpEv, ptr noundef @.str.81)
  call void @_ZN6open3d7utility6Logger8LogInfo_IJEEEvPKciS4_S4_DpOT_(ptr noundef @.str, i32 noundef 243, ptr noundef @__PRETTY_FUNCTION__._ZN6open3d13visualization29VisualizerWithVertexSelection19PrintVisualizerHelpEv, ptr noundef @.str.82)
  call void @_ZN6open3d7utility6Logger8LogInfo_IJEEEvPKciS4_S4_DpOT_(ptr noundef @.str, i32 noundef 244, ptr noundef @__PRETTY_FUNCTION__._ZN6open3d13visualization29VisualizerWithVertexSelection19PrintVisualizerHelpEv, ptr noundef @.str.83)
  call void @_ZN6open3d7utility6Logger8LogInfo_IJEEEvPKciS4_S4_DpOT_(ptr noundef @.str, i32 noundef 245, ptr noundef @__PRETTY_FUNCTION__._ZN6open3d13visualization29VisualizerWithVertexSelection19PrintVisualizerHelpEv, ptr noundef @.str.44)
  ret void
}