; Function Attrs: mustprogress ssp uwtable
define void @_ZN6open3d13visualization29VisualizerWithVertexSelection19PrintVisualizerHelpEv(ptr noundef nonnull align 16 dereferenceable(1384) %0) unnamed_addr #1 align 2 {
  tail call void @_ZN6open3d13visualization10Visualizer19PrintVisualizerHelpEv(ptr noundef nonnull align 8 dereferenceable(456) %0)
  tail call void @_ZN6open3d7utility6Logger8LogInfo_IJEEEvPKciS4_S4_DpOT_(ptr noundef nonnull @.str, i32 noundef 232, ptr noundef nonnull @__PRETTY_FUNCTION__._ZN6open3d13visualization29VisualizerWithVertexSelection19PrintVisualizerHelpEv, ptr noundef nonnull @.str.71)
  tail call void @_ZN6open3d7utility6Logger8LogInfo_IJEEEvPKciS4_S4_DpOT_(ptr noundef nonnull @.str, i32 noundef 233, ptr noundef nonnull @__PRETTY_FUNCTION__._ZN6open3d13visualization29VisualizerWithVertexSelection19PrintVisualizerHelpEv, ptr noundef nonnull @.str.72)
  tail call void @_ZN6open3d7utility6Logger8LogInfo_IJEEEvPKciS4_S4_DpOT_(ptr noundef nonnull @.str, i32 noundef 234, ptr noundef nonnull @__PRETTY_FUNCTION__._ZN6open3d13visualization29VisualizerWithVertexSelection19PrintVisualizerHelpEv, ptr noundef nonnull @.str.73)
  tail call void @_ZN6open3d7utility6Logger8LogInfo_IJEEEvPKciS4_S4_DpOT_(ptr noundef nonnull @.str, i32 noundef 235, ptr noundef nonnull @__PRETTY_FUNCTION__._ZN6open3d13visualization29VisualizerWithVertexSelection19PrintVisualizerHelpEv, ptr noundef nonnull @.str.74)
  tail call void @_ZN6open3d7utility6Logger8LogInfo_IJEEEvPKciS4_S4_DpOT_(ptr noundef nonnull @.str, i32 noundef 236, ptr noundef nonnull @__PRETTY_FUNCTION__._ZN6open3d13visualization29VisualizerWithVertexSelection19PrintVisualizerHelpEv, ptr noundef nonnull @.str.75)
  tail call void @_ZN6open3d7utility6Logger8LogInfo_IJEEEvPKciS4_S4_DpOT_(ptr noundef nonnull @.str, i32 noundef 237, ptr noundef nonnull @__PRETTY_FUNCTION__._ZN6open3d13visualization29VisualizerWithVertexSelection19PrintVisualizerHelpEv, ptr noundef nonnull @.str.76)
  tail call void @_ZN6open3d7utility6Logger8LogInfo_IJEEEvPKciS4_S4_DpOT_(ptr noundef nonnull @.str, i32 noundef 238, ptr noundef nonnull @__PRETTY_FUNCTION__._ZN6open3d13visualization29VisualizerWithVertexSelection19PrintVisualizerHelpEv, ptr noundef nonnull @.str.77)
  tail call void @_ZN6open3d7utility6Logger8LogInfo_IJEEEvPKciS4_S4_DpOT_(ptr noundef nonnull @.str, i32 noundef 239, ptr noundef nonnull @__PRETTY_FUNCTION__._ZN6open3d13visualization29VisualizerWithVertexSelection19PrintVisualizerHelpEv, ptr noundef nonnull @.str.78)
  tail call void @_ZN6open3d7utility6Logger8LogInfo_IJEEEvPKciS4_S4_DpOT_(ptr noundef nonnull @.str, i32 noundef 240, ptr noundef nonnull @__PRETTY_FUNCTION__._ZN6open3d13visualization29VisualizerWithVertexSelection19PrintVisualizerHelpEv, ptr noundef nonnull @.str.79)
  tail call void @_ZN6open3d7utility6Logger8LogInfo_IJEEEvPKciS4_S4_DpOT_(ptr noundef nonnull @.str, i32 noundef 241, ptr noundef nonnull @__PRETTY_FUNCTION__._ZN6open3d13visualization29VisualizerWithVertexSelection19PrintVisualizerHelpEv, ptr noundef nonnull @.str.80)
  tail call void @_ZN6open3d7utility6Logger8LogInfo_IJEEEvPKciS4_S4_DpOT_(ptr noundef nonnull @.str, i32 noundef 242, ptr noundef nonnull @__PRETTY_FUNCTION__._ZN6open3d13visualization29VisualizerWithVertexSelection19PrintVisualizerHelpEv, ptr noundef nonnull @.str.81)
  tail call void @_ZN6open3d7utility6Logger8LogInfo_IJEEEvPKciS4_S4_DpOT_(ptr noundef nonnull @.str, i32 noundef 243, ptr noundef nonnull @__PRETTY_FUNCTION__._ZN6open3d13visualization29VisualizerWithVertexSelection19PrintVisualizerHelpEv, ptr noundef nonnull @.str.82)
  tail call void @_ZN6open3d7utility6Logger8LogInfo_IJEEEvPKciS4_S4_DpOT_(ptr noundef nonnull @.str, i32 noundef 244, ptr noundef nonnull @__PRETTY_FUNCTION__._ZN6open3d13visualization29VisualizerWithVertexSelection19PrintVisualizerHelpEv, ptr noundef nonnull @.str.83)
  tail call void @_ZN6open3d7utility6Logger8LogInfo_IJEEEvPKciS4_S4_DpOT_(ptr noundef nonnull @.str, i32 noundef 245, ptr noundef nonnull @__PRETTY_FUNCTION__._ZN6open3d13visualization29VisualizerWithVertexSelection19PrintVisualizerHelpEv, ptr noundef nonnull @.str.44)
  ret void
}